target datalayout = "e-m:e-p270:32:32-p271:32:32-p272:64:64-i64:64-i128:128-f80:128-n8:16:32:64-S128"
target triple = "x86_64-pc-linux-gnu"

%class.ModuleEntryTable = type { %class.ResourceHashtable }
%class.ResourceHashtable = type { %class.ResourceHashtableBase.base, [4 x i8] }
%class.ResourceHashtableBase.base = type <{ %class.FixedResourceHashtableStorage, i32 }>
%class.FixedResourceHashtableStorage = type { [109 x ptr] }
%class.ResourceHashtableNode = type { i32, %class.SymbolHandleBase, ptr, ptr }
%class.SymbolHandleBase = type { ptr }
%class.ResourceHashtableBase = type <{ %class.FixedResourceHashtableStorage, i32, [4 x i8] }>
%class.anon.13 = type { ptr }
%class.anon.60 = type { ptr }

; Function Attrs: mustprogress nounwind uwtable
define internal void @"_ZZN16ModuleEntryTable10modules_doEP13ModuleClosureENK3$_0clERK16SymbolHandleBaseILb0EERP11ModuleEntry"(ptr noundef nonnull align 8 dereferenceable(8) %0, ptr noundef nonnull align 8 dereferenceable(8) %1, ptr noundef nonnull align 8 dereferenceable(8) %2) #1 align 2 {
  %4 = alloca ptr, align 8
  %5 = alloca ptr, align 8
  %6 = alloca ptr, align 8
  store ptr %0, ptr %4, align 8
  store ptr %1, ptr %5, align 8
  store ptr %2, ptr %6, align 8
  %7 = load ptr, ptr %4, align 8
  %8 = getelementptr inbounds %class.anon.13, ptr %7, i32 0, i32 0
  %9 = load ptr, ptr %8, align 8
  %10 = load ptr, ptr %9, align 8
  %11 = load ptr, ptr %6, align 8
  %12 = load ptr, ptr %11, align 8
  %13 = load ptr, ptr %10, align 8
  %14 = getelementptr inbounds ptr, ptr %13, i64 0
  %15 = load ptr, ptr %14, align 8
  call void %15(ptr noundef nonnull align 8 dereferenceable(8) %10, ptr noundef %12)
  ret void
}

; Function Attrs: mustprogress nounwind uwtable
define linkonce_odr hidden noundef i32 @_ZNK29FixedResourceHashtableStorageILj109E16SymbolHandleBaseILb0EEP11ModuleEntryE10table_sizeEv(ptr noundef nonnull align 8 dereferenceable(872) %0) #1 comdat align 2 {
  %2 = alloca ptr, align 8
  store ptr %0, ptr %2, align 8
  ret i32 109
}

; Function Attrs: mustprogress nounwind uwtable
define linkonce_odr hidden noundef ptr @_ZNK29FixedResourceHashtableStorageILj109E16SymbolHandleBaseILb0EEP11ModuleEntryE5tableEv(ptr noundef nonnull align 8 dereferenceable(872) %0) #1 comdat align 2 {
  %2 = alloca ptr, align 8
  store ptr %0, ptr %2, align 8
  %3 = load ptr, ptr %2, align 8
  %4 = getelementptr inbounds %class.FixedResourceHashtableStorage, ptr %3, i32 0, i32 0
  %5 = getelementptr inbounds [109 x ptr], ptr %4, i64 0, i64 0
  ret ptr %5
}

; Function Attrs: mustprogress nounwind uwtable
define internal noundef zeroext i1 @"_ZZNK21ResourceHashtableBaseI29FixedResourceHashtableStorageILj109E16SymbolHandleBaseILb0EEP11ModuleEntryES2_S4_LN6AnyObj15allocation_typeE2EL8MEMFLAGS20EXadL_ZNS2_12compute_hashERKS2_EEXadL_Z16primitive_equalsIS2_EbRKT_SE_EEE11iterate_allIZN16ModuleEntryTable10modules_doEP13ModuleClosureE3$_0EEvSC_ENKUlRS2_RS4_E_clESL_SM_"(ptr noundef nonnull align 8 dereferenceable(8) %0, ptr noundef nonnull align 8 dereferenceable(8) %1, ptr noundef nonnull align 8 dereferenceable(8) %2) #1 align 2 {
  %4 = alloca ptr, align 8
  %5 = alloca ptr, align 8
  %6 = alloca ptr, align 8
  store ptr %0, ptr %4, align 8
  store ptr %1, ptr %5, align 8
  store ptr %2, ptr %6, align 8
  %7 = load ptr, ptr %4, align 8
  %8 = getelementptr inbounds %class.anon.60, ptr %7, i32 0, i32 0
  %9 = load ptr, ptr %8, align 8
  %10 = load ptr, ptr %5, align 8
  %11 = load ptr, ptr %6, align 8
  call void @"_ZZN16ModuleEntryTable10modules_doEP13ModuleClosureENK3$_0clERK16SymbolHandleBaseILb0EERP11ModuleEntry"(ptr noundef nonnull align 8 dereferenceable(8) %9, ptr noundef nonnull align 8 dereferenceable(8) %10, ptr noundef nonnull align 8 dereferenceable(8) %11)
  ret i1 true
}

; Function Attrs: mustprogress nounwind uwtable
define linkonce_odr hidden noundef ptr @_ZNK21ResourceHashtableBaseI29FixedResourceHashtableStorageILj109E16SymbolHandleBaseILb0EEP11ModuleEntryES2_S4_LN6AnyObj15allocation_typeE2EL8MEMFLAGS20EXadL_ZNS2_12compute_hashERKS2_EEXadL_Z16primitive_equalsIS2_EbRKT_SE_EEE9bucket_atEj(ptr noundef nonnull align 8 dereferenceable(876) %0, i32 noundef %1) #1 comdat align 2 {
  %3 = alloca ptr, align 8
  %4 = alloca i32, align 4
  %5 = alloca ptr, align 8
  store ptr %0, ptr %3, align 8
  store i32 %1, ptr %4, align 4
  %6 = load ptr, ptr %3, align 8
  %7 = call noundef ptr @_ZNK21ResourceHashtableBaseI29FixedResourceHashtableStorageILj109E16SymbolHandleBaseILb0EEP11ModuleEntryES2_S4_LN6AnyObj15allocation_typeE2EL8MEMFLAGS20EXadL_ZNS2_12compute_hashERKS2_EEXadL_Z16primitive_equalsIS2_EbRKT_SE_EEE5tableEv(ptr noundef nonnull align 8 dereferenceable(876) %6)
  store ptr %7, ptr %5, align 8
  %8 = load ptr, ptr %5, align 8
  %9 = load i32, ptr %4, align 4
  %10 = zext i32 %9 to i64
  %11 = getelementptr inbounds ptr, ptr %8, i64 %10
  ret ptr %11
}

; Function Attrs: mustprogress nounwind uwtable
define linkonce_odr hidden noundef i32 @_ZNK21ResourceHashtableBaseI29FixedResourceHashtableStorageILj109E16SymbolHandleBaseILb0EEP11ModuleEntryES2_S4_LN6AnyObj15allocation_typeE2EL8MEMFLAGS20EXadL_ZNS2_12compute_hashERKS2_EEXadL_Z16primitive_equalsIS2_EbRKT_SE_EEE10table_sizeEv(ptr noundef nonnull align 8 dereferenceable(876) %0) #1 comdat align 2 {
  %2 = alloca ptr, align 8
  store ptr %0, ptr %2, align 8
  %3 = load ptr, ptr %2, align 8
  %4 = call noundef i32 @_ZNK29FixedResourceHashtableStorageILj109E16SymbolHandleBaseILb0EEP11ModuleEntryE10table_sizeEv(ptr noundef nonnull align 8 dereferenceable(872) %3)
  ret i32 %4
}

; Function Attrs: mustprogress nounwind uwtable
define linkonce_odr hidden noundef ptr @_ZNK21ResourceHashtableBaseI29FixedResourceHashtableStorageILj109E16SymbolHandleBaseILb0EEP11ModuleEntryES2_S4_LN6AnyObj15allocation_typeE2EL8MEMFLAGS20EXadL_ZNS2_12compute_hashERKS2_EEXadL_Z16primitive_equalsIS2_EbRKT_SE_EEE5tableEv(ptr noundef nonnull align 8 dereferenceable(876) %0) #1 comdat align 2 {
  %2 = alloca ptr, align 8
  store ptr %0, ptr %2, align 8
  %3 = load ptr, ptr %2, align 8
  %4 = call noundef ptr @_ZNK29FixedResourceHashtableStorageILj109E16SymbolHandleBaseILb0EEP11ModuleEntryE5tableEv(ptr noundef nonnull align 8 dereferenceable(872) %3)
  ret ptr %4
}

; Function Attrs: mustprogress nounwind uwtable
define internal void @"_ZNK21ResourceHashtableBaseI29FixedResourceHashtableStorageILj109E16SymbolHandleBaseILb0EEP11ModuleEntryES2_S4_LN6AnyObj15allocation_typeE2EL8MEMFLAGS20EXadL_ZNS2_12compute_hashERKS2_EEXadL_Z16primitive_equalsIS2_EbRKT_SE_EEE7iterateIZNKSF_11iterate_allIZN16ModuleEntryTable10modules_doEP13ModuleClosureE3$_0EEvSC_EUlRS2_RS4_E_EEvSC_"(ptr noundef nonnull align 8 dereferenceable(876) %0, ptr %1) #1 align 2 {
  %3 = alloca %class.anon.60, align 8
  %4 = alloca ptr, align 8
  %5 = alloca ptr, align 8
  %6 = alloca i32, align 4
  %7 = alloca i32, align 4
  %8 = alloca ptr, align 8
  %9 = alloca i8, align 1
  %10 = getelementptr inbounds %class.anon.60, ptr %3, i32 0, i32 0
  store ptr %1, ptr %10, align 8
  store ptr %0, ptr %4, align 8
  %11 = load ptr, ptr %4, align 8
  %12 = call noundef ptr @_ZNK21ResourceHashtableBaseI29FixedResourceHashtableStorageILj109E16SymbolHandleBaseILb0EEP11ModuleEntryES2_S4_LN6AnyObj15allocation_typeE2EL8MEMFLAGS20EXadL_ZNS2_12compute_hashERKS2_EEXadL_Z16primitive_equalsIS2_EbRKT_SE_EEE5tableEv(ptr noundef nonnull align 8 dereferenceable(876) %11)
  store ptr %12, ptr %5, align 8
  %13 = call noundef i32 @_ZNK21ResourceHashtableBaseI29FixedResourceHashtableStorageILj109E16SymbolHandleBaseILb0EEP11ModuleEntryES2_S4_LN6AnyObj15allocation_typeE2EL8MEMFLAGS20EXadL_ZNS2_12compute_hashERKS2_EEXadL_Z16primitive_equalsIS2_EbRKT_SE_EEE10table_sizeEv(ptr noundef nonnull align 8 dereferenceable(876) %11)
  store i32 %13, ptr %6, align 4
  %14 = getelementptr inbounds %class.ResourceHashtableBase, ptr %11, i32 0, i32 1
  %15 = load i32, ptr %14, align 8
  store i32 %15, ptr %7, align 4
  br label %16

16:                                               ; preds = %48, %2
  %17 = load i32, ptr %7, align 4
  %18 = icmp sgt i32 %17, 0
  br i1 %18, label %19, label %24

19:                                               ; preds = %16
  %20 = load ptr, ptr %5, align 8
  %21 = load i32, ptr %6, align 4
  %22 = call noundef ptr @_ZNK21ResourceHashtableBaseI29FixedResourceHashtableStorageILj109E16SymbolHandleBaseILb0EEP11ModuleEntryES2_S4_LN6AnyObj15allocation_typeE2EL8MEMFLAGS20EXadL_ZNS2_12compute_hashERKS2_EEXadL_Z16primitive_equalsIS2_EbRKT_SE_EEE9bucket_atEj(ptr noundef nonnull align 8 dereferenceable(876) %11, i32 noundef %21)
  %23 = icmp ult ptr %20, %22
  br label %24

24:                                               ; preds = %19, %16
  %25 = phi i1 [ false, %16 ], [ %23, %19 ]
  br i1 %25, label %26, label %51

26:                                               ; preds = %24
  %27 = load ptr, ptr %5, align 8
  %28 = load ptr, ptr %27, align 8
  store ptr %28, ptr %8, align 8
  br label %29

29:                                               ; preds = %42, %26
  %30 = load ptr, ptr %8, align 8
  %31 = icmp ne ptr %30, null
  br i1 %31, label %32, label %48

32:                                               ; preds = %29
  %33 = load ptr, ptr %8, align 8
  %34 = getelementptr inbounds %class.ResourceHashtableNode, ptr %33, i32 0, i32 1
  %35 = load ptr, ptr %8, align 8
  %36 = getelementptr inbounds %class.ResourceHashtableNode, ptr %35, i32 0, i32 2
  %37 = call noundef zeroext i1 @"_ZZNK21ResourceHashtableBaseI29FixedResourceHashtableStorageILj109E16SymbolHandleBaseILb0EEP11ModuleEntryES2_S4_LN6AnyObj15allocation_typeE2EL8MEMFLAGS20EXadL_ZNS2_12compute_hashERKS2_EEXadL_Z16primitive_equalsIS2_EbRKT_SE_EEE11iterate_allIZN16ModuleEntryTable10modules_doEP13ModuleClosureE3$_0EEvSC_ENKUlRS2_RS4_E_clESL_SM_"(ptr noundef nonnull align 8 dereferenceable(8) %3, ptr noundef nonnull align 8 dereferenceable(8) %34, ptr noundef nonnull align 8 dereferenceable(8) %36)
  %38 = zext i1 %37 to i8
  store i8 %38, ptr %9, align 1
  %39 = load i8, ptr %9, align 1
  %40 = trunc i8 %39 to i1
  br i1 %40, label %42, label %41

41:                                               ; preds = %32
  br label %51

42:                                               ; preds = %32
  %43 = load ptr, ptr %8, align 8
  %44 = getelementptr inbounds %class.ResourceHashtableNode, ptr %43, i32 0, i32 3
  %45 = load ptr, ptr %44, align 8
  store ptr %45, ptr %8, align 8
  %46 = load i32, ptr %7, align 4
  %47 = add nsw i32 %46, -1
  store i32 %47, ptr %7, align 4
  br label %29, !llvm.loop !47

48:                                               ; preds = %29
  %49 = load ptr, ptr %5, align 8
  %50 = getelementptr inbounds ptr, ptr %49, i32 1
  store ptr %50, ptr %5, align 8
  br label %16, !llvm.loop !48

51:                                               ; preds = %41, %24
  ret void
}

; Function Attrs: mustprogress nounwind uwtable
define internal void @"_ZNK21ResourceHashtableBaseI29FixedResourceHashtableStorageILj109E16SymbolHandleBaseILb0EEP11ModuleEntryES2_S4_LN6AnyObj15allocation_typeE2EL8MEMFLAGS20EXadL_ZNS2_12compute_hashERKS2_EEXadL_Z16primitive_equalsIS2_EbRKT_SE_EEE11iterate_allIZN16ModuleEntryTable10modules_doEP13ModuleClosureE3$_0EEvSC_"(ptr noundef nonnull align 8 dereferenceable(876) %0, ptr %1) #1 align 2 {
  %3 = alloca %class.anon.13, align 8
  %4 = alloca ptr, align 8
  %5 = alloca %class.anon.60, align 8
  %6 = alloca %class.anon.60, align 8
  %7 = getelementptr inbounds %class.anon.13, ptr %3, i32 0, i32 0
  store ptr %1, ptr %7, align 8
  store ptr %0, ptr %4, align 8
  %8 = load ptr, ptr %4, align 8
  %9 = getelementptr inbounds %class.anon.60, ptr %5, i32 0, i32 0
  store ptr %3, ptr %9, align 8
  call void @llvm.memcpy.p0.p0.i64(ptr align 8 %6, ptr align 8 %5, i64 8, i1 false)
  %10 = getelementptr inbounds %class.anon.60, ptr %6, i32 0, i32 0
  %11 = load ptr, ptr %10, align 8
  call void @"_ZNK21ResourceHashtableBaseI29FixedResourceHashtableStorageILj109E16SymbolHandleBaseILb0EEP11ModuleEntryES2_S4_LN6AnyObj15allocation_typeE2EL8MEMFLAGS20EXadL_ZNS2_12compute_hashERKS2_EEXadL_Z16primitive_equalsIS2_EbRKT_SE_EEE7iterateIZNKSF_11iterate_allIZN16ModuleEntryTable10modules_doEP13ModuleClosureE3$_0EEvSC_EUlRS2_RS4_E_EEvSC_"(ptr noundef nonnull align 8 dereferenceable(876) %8, ptr %11)
  ret void
}

; Function Attrs: mustprogress nounwind uwtable
define hidden void @_ZN16ModuleEntryTable10modules_doEP13ModuleClosure(ptr noundef nonnull align 8 dereferenceable(880) %0, ptr noundef %1) #1 align 2 {
  %3 = alloca ptr, align 8
  %4 = alloca ptr, align 8
  %5 = alloca %class.anon.13, align 8
  %6 = alloca %class.anon.13, align 8
  store ptr %0, ptr %3, align 8
  store ptr %1, ptr %4, align 8
  %7 = load ptr, ptr %3, align 8
  %8 = getelementptr inbounds %class.anon.13, ptr %5, i32 0, i32 0
  store ptr %4, ptr %8, align 8
  %9 = getelementptr inbounds %class.ModuleEntryTable, ptr %7, i32 0, i32 0
  call void @llvm.memcpy.p0.p0.i64(ptr align 8 %6, ptr align 8 %5, i64 8, i1 false)
  %10 = getelementptr inbounds %class.anon.13, ptr %6, i32 0, i32 0
  %11 = load ptr, ptr %10, align 8
  call void @"_ZNK21ResourceHashtableBaseI29FixedResourceHashtableStorageILj109E16SymbolHandleBaseILb0EEP11ModuleEntryES2_S4_LN6AnyObj15allocation_typeE2EL8MEMFLAGS20EXadL_ZNS2_12compute_hashERKS2_EEXadL_Z16primitive_equalsIS2_EbRKT_SE_EEE11iterate_allIZN16ModuleEntryTable10modules_doEP13ModuleClosureE3$_0EEvSC_"(ptr noundef nonnull align 8 dereferenceable(876) %9, ptr %11)
  ret void
}