; Function Attrs: mustprogress nounwind uwtable
define hidden void @_ZN16ModuleEntryTable10modules_doEP13ModuleClosure(ptr nocapture noundef nonnull readonly align 8 dereferenceable(880) %0, ptr noundef %1) local_unnamed_addr #0 align 2 {
  %3 = getelementptr inbounds i8, ptr %0, i64 872
  %4 = load i32, ptr %3, align 8
  %5 = icmp sgt i32 %4, 0
  br i1 %5, label %.preheader.i.i, label %"_ZNK21ResourceHashtableBaseI29FixedResourceHashtableStorageILj109E16SymbolHandleBaseILb0EEP11ModuleEntryES2_S4_LN6AnyObj15allocation_typeE2EL8MEMFLAGS20EXadL_ZNS2_12compute_hashERKS2_EEXadL_Z16primitive_equalsIS2_EbRKT_SE_EEE11iterate_allIZN16ModuleEntryTable10modules_doEP13ModuleClosureE3$_0EEvSC_.exit"

.preheader.i.i:                                   ; preds = %2, %._crit_edge.i.i
  %.0.idx19.i.i = phi i64 [ %.0.add.i.i, %._crit_edge.i.i ], [ 0, %2 ]
  %.01218.i.i = phi i32 [ %.1.lcssa.i.i, %._crit_edge.i.i ], [ %4, %2 ]
  %.0.ptr20.i.i = getelementptr inbounds i8, ptr %0, i64 %.0.idx19.i.i
  %.01114.i.i = load ptr, ptr %.0.ptr20.i.i, align 8
  %.not15.i.i = icmp eq ptr %.01114.i.i, null
  br i1 %.not15.i.i, label %._crit_edge.i.i, label %.lr.ph.i.i

.lr.ph.i.i:                                       ; preds = %.preheader.i.i, %.lr.ph.i.i
  %.01117.i.i = phi ptr [ %.011.i.i, %.lr.ph.i.i ], [ %.01114.i.i, %.preheader.i.i ]
  %.116.i.i = phi i32 [ %10, %.lr.ph.i.i ], [ %.01218.i.i, %.preheader.i.i ]
  %6 = getelementptr inbounds i8, ptr %.01117.i.i, i64 16
  %.val13.i.i = load ptr, ptr %6, align 8
  %7 = load ptr, ptr %1, align 8
  %8 = load ptr, ptr %7, align 8
  tail call void %8(ptr noundef nonnull align 8 dereferenceable(8) %1, ptr noundef %.val13.i.i) #16
  %9 = getelementptr inbounds i8, ptr %.01117.i.i, i64 24
  %10 = add nsw i32 %.116.i.i, -1
  %.011.i.i = load ptr, ptr %9, align 8
  %.not.i.i = icmp eq ptr %.011.i.i, null
  br i1 %.not.i.i, label %._crit_edge.i.i, label %.lr.ph.i.i, !llvm.loop !36

._crit_edge.i.i:                                  ; preds = %.lr.ph.i.i, %.preheader.i.i
  %.1.lcssa.i.i = phi i32 [ %.01218.i.i, %.preheader.i.i ], [ %10, %.lr.ph.i.i ]
  %.0.add.i.i = add nuw nsw i64 %.0.idx19.i.i, 8
  %11 = icmp sgt i32 %.1.lcssa.i.i, 0
  %12 = icmp ult i64 %.0.idx19.i.i, 864
  %or.cond.i.i = and i1 %12, %11
  br i1 %or.cond.i.i, label %.preheader.i.i, label %"_ZNK21ResourceHashtableBaseI29FixedResourceHashtableStorageILj109E16SymbolHandleBaseILb0EEP11ModuleEntryES2_S4_LN6AnyObj15allocation_typeE2EL8MEMFLAGS20EXadL_ZNS2_12compute_hashERKS2_EEXadL_Z16primitive_equalsIS2_EbRKT_SE_EEE11iterate_allIZN16ModuleEntryTable10modules_doEP13ModuleClosureE3$_0EEvSC_.exit", !llvm.loop !37

"_ZNK21ResourceHashtableBaseI29FixedResourceHashtableStorageILj109E16SymbolHandleBaseILb0EEP11ModuleEntryES2_S4_LN6AnyObj15allocation_typeE2EL8MEMFLAGS20EXadL_ZNS2_12compute_hashERKS2_EEXadL_Z16primitive_equalsIS2_EbRKT_SE_EEE11iterate_allIZN16ModuleEntryTable10modules_doEP13ModuleClosureE3$_0EEvSC_.exit": ; preds = %._crit_edge.i.i, %2
  ret void
}